; Function Attrs: null_pointer_is_valid sspstrong uwtable
define hidden i32 @samr_dissect_struct_UserInfo26(ptr noundef %0, i32 noundef %1, ptr noundef %2, ptr noundef %3, ptr noundef %4, ptr noundef %5, i32 noundef %6, i32 %7) local_unnamed_addr #0 {
  %.not = icmp eq ptr %3, null
  br i1 %.not, label %.thread, label %9

9:                                                ; preds = %8
  %10 = tail call ptr @proto_tree_add_item(ptr noundef nonnull %3, i32 noundef %6, ptr noundef %0, i32 noundef %1, i32 noundef -1, i32 noundef 0)
  %11 = load i32, ptr @ett_samr_samr_UserInfo26, align 4
  %12 = tail call ptr @proto_item_add_subtree(ptr noundef %10, i32 noundef %11)
  %.not.i.i = icmp eq ptr %12, null
  br i1 %.not.i.i, label %.thread, label %13

13:                                               ; preds = %9
  %14 = load i32, ptr @hf_samr_samr_UserInfo26_password, align 4
  %15 = tail call ptr @proto_tree_add_item(ptr noundef nonnull %12, i32 noundef %14, ptr noundef %0, i32 noundef %1, i32 noundef -1, i32 noundef 0)
  %16 = load i32, ptr @ett_samr_samr_CryptPasswordEx, align 4
  %17 = tail call ptr @proto_item_add_subtree(ptr noundef %15, i32 noundef %16)
  br label %.thread

.thread:                                          ; preds = %8, %13, %9
  %.028 = phi ptr [ %12, %13 ], [ null, %9 ], [ null, %8 ]
  %.02227 = phi ptr [ %10, %13 ], [ %10, %9 ], [ null, %8 ]
  %.016.i.i = phi ptr [ %15, %13 ], [ null, %9 ], [ null, %8 ]
  %.0.i.i = phi ptr [ %17, %13 ], [ null, %9 ], [ null, %8 ]
  br label %18

18:                                               ; preds = %18, %.thread
  %.010.i.i.i = phi i32 [ 0, %.thread ], [ %21, %18 ]
  %.089.i.i.i = phi i32 [ %1, %.thread ], [ %20, %18 ]
  %19 = load i32, ptr @hf_samr_samr_CryptPasswordEx_data, align 4
  %20 = tail call i32 @PIDL_dissect_uint8(ptr noundef %0, i32 noundef %.089.i.i.i, ptr noundef %2, ptr noundef %.0.i.i, ptr noundef %4, ptr noundef %5, i32 noundef %19, i32 noundef 0)
  %21 = add nuw nsw i32 %.010.i.i.i, 1
  %exitcond.not.i.i.i = icmp eq i32 %21, 532
  br i1 %exitcond.not.i.i.i, label %samr_dissect_element_UserInfo26_password.exit, label %18, !llvm.loop !11

samr_dissect_element_UserInfo26_password.exit:    ; preds = %18
  %22 = sub i32 %20, %1
  tail call void @proto_item_set_len(ptr noundef %.016.i.i, i32 noundef %22)
  %23 = load i32, ptr @hf_samr_samr_UserInfo26_password_expired, align 4
  %24 = tail call i32 @PIDL_dissect_uint8(ptr noundef %0, i32 noundef %20, ptr noundef %2, ptr noundef %.028, ptr noundef %4, ptr noundef %5, i32 noundef %23, i32 noundef 0)
  %25 = sub i32 %24, %1
  tail call void @proto_item_set_len(ptr noundef %.02227, i32 noundef %25)
  ret i32 %24
}